target datalayout = "e-m:e-p270:32:32-p271:32:32-p272:64:64-i64:64-i128:128-f80:128-n8:16:32:64-S128"
target triple = "x86_64-pc-linux-gnu"

; Function Attrs: alwaysinline nounwind willreturn memory(none) uwtable
define internal zeroext i8 @av_clip_uint8_c(i32 noundef %0) #4 {
  %2 = alloca i8, align 1
  %3 = alloca i32, align 4
  store i32 %0, ptr %3, align 4, !tbaa !14
  %4 = load i32, ptr %3, align 4, !tbaa !14
  %5 = and i32 %4, -256
  %6 = icmp ne i32 %5, 0
  br i1 %6, label %7, label %12

7:                                                ; preds = %1
  %8 = load i32, ptr %3, align 4, !tbaa !14
  %9 = xor i32 %8, -1
  %10 = ashr i32 %9, 31
  %11 = trunc i32 %10 to i8
  store i8 %11, ptr %2, align 1
  br label %15

12:                                               ; preds = %1
  %13 = load i32, ptr %3, align 4, !tbaa !14
  %14 = trunc i32 %13 to i8
  store i8 %14, ptr %2, align 1
  br label %15

15:                                               ; preds = %12, %7
  %16 = load i8, ptr %2, align 1
  ret i8 %16
}

; Function Attrs: nounwind uwtable
define internal void @vp8_idct_add_c(ptr noundef %0, ptr noundef %1, i64 noundef %2) #1 {
  %4 = alloca ptr, align 8
  %5 = alloca ptr, align 8
  %6 = alloca i64, align 8
  %7 = alloca i32, align 4
  %8 = alloca i32, align 4
  %9 = alloca i32, align 4
  %10 = alloca i32, align 4
  %11 = alloca i32, align 4
  %12 = alloca [16 x i16], align 16
  store ptr %0, ptr %4, align 8, !tbaa !10
  store ptr %1, ptr %5, align 8, !tbaa !134
  store i64 %2, ptr %6, align 8, !tbaa !12
  call void @llvm.lifetime.start.p0(i64 4, ptr %7) #6
  call void @llvm.lifetime.start.p0(i64 4, ptr %8) #6
  call void @llvm.lifetime.start.p0(i64 4, ptr %9) #6
  call void @llvm.lifetime.start.p0(i64 4, ptr %10) #6
  call void @llvm.lifetime.start.p0(i64 4, ptr %11) #6
  call void @llvm.lifetime.start.p0(i64 32, ptr %12) #6
  store i32 0, ptr %7, align 4, !tbaa !14
  br label %13

13:                                               ; preds = %157, %3
  %14 = load i32, ptr %7, align 4, !tbaa !14
  %15 = icmp slt i32 %14, 4
  br i1 %15, label %16, label %160

16:                                               ; preds = %13
  %17 = load ptr, ptr %5, align 8, !tbaa !134
  %18 = load i32, ptr %7, align 4, !tbaa !14
  %19 = add nsw i32 0, %18
  %20 = sext i32 %19 to i64
  %21 = getelementptr inbounds i16, ptr %17, i64 %20
  %22 = load i16, ptr %21, align 2, !tbaa !136
  %23 = sext i16 %22 to i32
  %24 = load ptr, ptr %5, align 8, !tbaa !134
  %25 = load i32, ptr %7, align 4, !tbaa !14
  %26 = add nsw i32 8, %25
  %27 = sext i32 %26 to i64
  %28 = getelementptr inbounds i16, ptr %24, i64 %27
  %29 = load i16, ptr %28, align 2, !tbaa !136
  %30 = sext i16 %29 to i32
  %31 = add nsw i32 %23, %30
  store i32 %31, ptr %8, align 4, !tbaa !14
  %32 = load ptr, ptr %5, align 8, !tbaa !134
  %33 = load i32, ptr %7, align 4, !tbaa !14
  %34 = add nsw i32 0, %33
  %35 = sext i32 %34 to i64
  %36 = getelementptr inbounds i16, ptr %32, i64 %35
  %37 = load i16, ptr %36, align 2, !tbaa !136
  %38 = sext i16 %37 to i32
  %39 = load ptr, ptr %5, align 8, !tbaa !134
  %40 = load i32, ptr %7, align 4, !tbaa !14
  %41 = add nsw i32 8, %40
  %42 = sext i32 %41 to i64
  %43 = getelementptr inbounds i16, ptr %39, i64 %42
  %44 = load i16, ptr %43, align 2, !tbaa !136
  %45 = sext i16 %44 to i32
  %46 = sub nsw i32 %38, %45
  store i32 %46, ptr %9, align 4, !tbaa !14
  %47 = load ptr, ptr %5, align 8, !tbaa !134
  %48 = load i32, ptr %7, align 4, !tbaa !14
  %49 = add nsw i32 4, %48
  %50 = sext i32 %49 to i64
  %51 = getelementptr inbounds i16, ptr %47, i64 %50
  %52 = load i16, ptr %51, align 2, !tbaa !136
  %53 = sext i16 %52 to i32
  %54 = mul nsw i32 %53, 35468
  %55 = ashr i32 %54, 16
  %56 = load ptr, ptr %5, align 8, !tbaa !134
  %57 = load i32, ptr %7, align 4, !tbaa !14
  %58 = add nsw i32 12, %57
  %59 = sext i32 %58 to i64
  %60 = getelementptr inbounds i16, ptr %56, i64 %59
  %61 = load i16, ptr %60, align 2, !tbaa !136
  %62 = sext i16 %61 to i32
  %63 = mul nsw i32 %62, 20091
  %64 = ashr i32 %63, 16
  %65 = load ptr, ptr %5, align 8, !tbaa !134
  %66 = load i32, ptr %7, align 4, !tbaa !14
  %67 = add nsw i32 12, %66
  %68 = sext i32 %67 to i64
  %69 = getelementptr inbounds i16, ptr %65, i64 %68
  %70 = load i16, ptr %69, align 2, !tbaa !136
  %71 = sext i16 %70 to i32
  %72 = add nsw i32 %64, %71
  %73 = sub nsw i32 %55, %72
  store i32 %73, ptr %10, align 4, !tbaa !14
  %74 = load ptr, ptr %5, align 8, !tbaa !134
  %75 = load i32, ptr %7, align 4, !tbaa !14
  %76 = add nsw i32 4, %75
  %77 = sext i32 %76 to i64
  %78 = getelementptr inbounds i16, ptr %74, i64 %77
  %79 = load i16, ptr %78, align 2, !tbaa !136
  %80 = sext i16 %79 to i32
  %81 = mul nsw i32 %80, 20091
  %82 = ashr i32 %81, 16
  %83 = load ptr, ptr %5, align 8, !tbaa !134
  %84 = load i32, ptr %7, align 4, !tbaa !14
  %85 = add nsw i32 4, %84
  %86 = sext i32 %85 to i64
  %87 = getelementptr inbounds i16, ptr %83, i64 %86
  %88 = load i16, ptr %87, align 2, !tbaa !136
  %89 = sext i16 %88 to i32
  %90 = add nsw i32 %82, %89
  %91 = load ptr, ptr %5, align 8, !tbaa !134
  %92 = load i32, ptr %7, align 4, !tbaa !14
  %93 = add nsw i32 12, %92
  %94 = sext i32 %93 to i64
  %95 = getelementptr inbounds i16, ptr %91, i64 %94
  %96 = load i16, ptr %95, align 2, !tbaa !136
  %97 = sext i16 %96 to i32
  %98 = mul nsw i32 %97, 35468
  %99 = ashr i32 %98, 16
  %100 = add nsw i32 %90, %99
  store i32 %100, ptr %11, align 4, !tbaa !14
  %101 = load ptr, ptr %5, align 8, !tbaa !134
  %102 = load i32, ptr %7, align 4, !tbaa !14
  %103 = add nsw i32 0, %102
  %104 = sext i32 %103 to i64
  %105 = getelementptr inbounds i16, ptr %101, i64 %104
  store i16 0, ptr %105, align 2, !tbaa !136
  %106 = load ptr, ptr %5, align 8, !tbaa !134
  %107 = load i32, ptr %7, align 4, !tbaa !14
  %108 = add nsw i32 4, %107
  %109 = sext i32 %108 to i64
  %110 = getelementptr inbounds i16, ptr %106, i64 %109
  store i16 0, ptr %110, align 2, !tbaa !136
  %111 = load ptr, ptr %5, align 8, !tbaa !134
  %112 = load i32, ptr %7, align 4, !tbaa !14
  %113 = add nsw i32 8, %112
  %114 = sext i32 %113 to i64
  %115 = getelementptr inbounds i16, ptr %111, i64 %114
  store i16 0, ptr %115, align 2, !tbaa !136
  %116 = load ptr, ptr %5, align 8, !tbaa !134
  %117 = load i32, ptr %7, align 4, !tbaa !14
  %118 = add nsw i32 12, %117
  %119 = sext i32 %118 to i64
  %120 = getelementptr inbounds i16, ptr %116, i64 %119
  store i16 0, ptr %120, align 2, !tbaa !136
  %121 = load i32, ptr %8, align 4, !tbaa !14
  %122 = load i32, ptr %11, align 4, !tbaa !14
  %123 = add nsw i32 %121, %122
  %124 = trunc i32 %123 to i16
  %125 = load i32, ptr %7, align 4, !tbaa !14
  %126 = mul nsw i32 %125, 4
  %127 = add nsw i32 %126, 0
  %128 = sext i32 %127 to i64
  %129 = getelementptr inbounds [16 x i16], ptr %12, i64 0, i64 %128
  store i16 %124, ptr %129, align 2, !tbaa !136
  %130 = load i32, ptr %9, align 4, !tbaa !14
  %131 = load i32, ptr %10, align 4, !tbaa !14
  %132 = add nsw i32 %130, %131
  %133 = trunc i32 %132 to i16
  %134 = load i32, ptr %7, align 4, !tbaa !14
  %135 = mul nsw i32 %134, 4
  %136 = add nsw i32 %135, 1
  %137 = sext i32 %136 to i64
  %138 = getelementptr inbounds [16 x i16], ptr %12, i64 0, i64 %137
  store i16 %133, ptr %138, align 2, !tbaa !136
  %139 = load i32, ptr %9, align 4, !tbaa !14
  %140 = load i32, ptr %10, align 4, !tbaa !14
  %141 = sub nsw i32 %139, %140
  %142 = trunc i32 %141 to i16
  %143 = load i32, ptr %7, align 4, !tbaa !14
  %144 = mul nsw i32 %143, 4
  %145 = add nsw i32 %144, 2
  %146 = sext i32 %145 to i64
  %147 = getelementptr inbounds [16 x i16], ptr %12, i64 0, i64 %146
  store i16 %142, ptr %147, align 2, !tbaa !136
  %148 = load i32, ptr %8, align 4, !tbaa !14
  %149 = load i32, ptr %11, align 4, !tbaa !14
  %150 = sub nsw i32 %148, %149
  %151 = trunc i32 %150 to i16
  %152 = load i32, ptr %7, align 4, !tbaa !14
  %153 = mul nsw i32 %152, 4
  %154 = add nsw i32 %153, 3
  %155 = sext i32 %154 to i64
  %156 = getelementptr inbounds [16 x i16], ptr %12, i64 0, i64 %155
  store i16 %151, ptr %156, align 2, !tbaa !136
  br label %157

157:                                              ; preds = %16
  %158 = load i32, ptr %7, align 4, !tbaa !14
  %159 = add nsw i32 %158, 1
  store i32 %159, ptr %7, align 4, !tbaa !14
  br label %13, !llvm.loop !153

160:                                              ; preds = %13
  store i32 0, ptr %7, align 4, !tbaa !14
  br label %161

161:                                              ; preds = %294, %160
  %162 = load i32, ptr %7, align 4, !tbaa !14
  %163 = icmp slt i32 %162, 4
  br i1 %163, label %164, label %297

164:                                              ; preds = %161
  %165 = load i32, ptr %7, align 4, !tbaa !14
  %166 = add nsw i32 0, %165
  %167 = sext i32 %166 to i64
  %168 = getelementptr inbounds [16 x i16], ptr %12, i64 0, i64 %167
  %169 = load i16, ptr %168, align 2, !tbaa !136
  %170 = sext i16 %169 to i32
  %171 = load i32, ptr %7, align 4, !tbaa !14
  %172 = add nsw i32 8, %171
  %173 = sext i32 %172 to i64
  %174 = getelementptr inbounds [16 x i16], ptr %12, i64 0, i64 %173
  %175 = load i16, ptr %174, align 2, !tbaa !136
  %176 = sext i16 %175 to i32
  %177 = add nsw i32 %170, %176
  store i32 %177, ptr %8, align 4, !tbaa !14
  %178 = load i32, ptr %7, align 4, !tbaa !14
  %179 = add nsw i32 0, %178
  %180 = sext i32 %179 to i64
  %181 = getelementptr inbounds [16 x i16], ptr %12, i64 0, i64 %180
  %182 = load i16, ptr %181, align 2, !tbaa !136
  %183 = sext i16 %182 to i32
  %184 = load i32, ptr %7, align 4, !tbaa !14
  %185 = add nsw i32 8, %184
  %186 = sext i32 %185 to i64
  %187 = getelementptr inbounds [16 x i16], ptr %12, i64 0, i64 %186
  %188 = load i16, ptr %187, align 2, !tbaa !136
  %189 = sext i16 %188 to i32
  %190 = sub nsw i32 %183, %189
  store i32 %190, ptr %9, align 4, !tbaa !14
  %191 = load i32, ptr %7, align 4, !tbaa !14
  %192 = add nsw i32 4, %191
  %193 = sext i32 %192 to i64
  %194 = getelementptr inbounds [16 x i16], ptr %12, i64 0, i64 %193
  %195 = load i16, ptr %194, align 2, !tbaa !136
  %196 = sext i16 %195 to i32
  %197 = mul nsw i32 %196, 35468
  %198 = ashr i32 %197, 16
  %199 = load i32, ptr %7, align 4, !tbaa !14
  %200 = add nsw i32 12, %199
  %201 = sext i32 %200 to i64
  %202 = getelementptr inbounds [16 x i16], ptr %12, i64 0, i64 %201
  %203 = load i16, ptr %202, align 2, !tbaa !136
  %204 = sext i16 %203 to i32
  %205 = mul nsw i32 %204, 20091
  %206 = ashr i32 %205, 16
  %207 = load i32, ptr %7, align 4, !tbaa !14
  %208 = add nsw i32 12, %207
  %209 = sext i32 %208 to i64
  %210 = getelementptr inbounds [16 x i16], ptr %12, i64 0, i64 %209
  %211 = load i16, ptr %210, align 2, !tbaa !136
  %212 = sext i16 %211 to i32
  %213 = add nsw i32 %206, %212
  %214 = sub nsw i32 %198, %213
  store i32 %214, ptr %10, align 4, !tbaa !14
  %215 = load i32, ptr %7, align 4, !tbaa !14
  %216 = add nsw i32 4, %215
  %217 = sext i32 %216 to i64
  %218 = getelementptr inbounds [16 x i16], ptr %12, i64 0, i64 %217
  %219 = load i16, ptr %218, align 2, !tbaa !136
  %220 = sext i16 %219 to i32
  %221 = mul nsw i32 %220, 20091
  %222 = ashr i32 %221, 16
  %223 = load i32, ptr %7, align 4, !tbaa !14
  %224 = add nsw i32 4, %223
  %225 = sext i32 %224 to i64
  %226 = getelementptr inbounds [16 x i16], ptr %12, i64 0, i64 %225
  %227 = load i16, ptr %226, align 2, !tbaa !136
  %228 = sext i16 %227 to i32
  %229 = add nsw i32 %222, %228
  %230 = load i32, ptr %7, align 4, !tbaa !14
  %231 = add nsw i32 12, %230
  %232 = sext i32 %231 to i64
  %233 = getelementptr inbounds [16 x i16], ptr %12, i64 0, i64 %232
  %234 = load i16, ptr %233, align 2, !tbaa !136
  %235 = sext i16 %234 to i32
  %236 = mul nsw i32 %235, 35468
  %237 = ashr i32 %236, 16
  %238 = add nsw i32 %229, %237
  store i32 %238, ptr %11, align 4, !tbaa !14
  %239 = load ptr, ptr %4, align 8, !tbaa !10
  %240 = getelementptr inbounds i8, ptr %239, i64 0
  %241 = load i8, ptr %240, align 1, !tbaa !18
  %242 = zext i8 %241 to i32
  %243 = load i32, ptr %8, align 4, !tbaa !14
  %244 = load i32, ptr %11, align 4, !tbaa !14
  %245 = add nsw i32 %243, %244
  %246 = add nsw i32 %245, 4
  %247 = ashr i32 %246, 3
  %248 = add nsw i32 %242, %247
  %249 = call zeroext i8 @av_clip_uint8_c(i32 noundef %248) #7
  %250 = load ptr, ptr %4, align 8, !tbaa !10
  %251 = getelementptr inbounds i8, ptr %250, i64 0
  store i8 %249, ptr %251, align 1, !tbaa !18
  %252 = load ptr, ptr %4, align 8, !tbaa !10
  %253 = getelementptr inbounds i8, ptr %252, i64 1
  %254 = load i8, ptr %253, align 1, !tbaa !18
  %255 = zext i8 %254 to i32
  %256 = load i32, ptr %9, align 4, !tbaa !14
  %257 = load i32, ptr %10, align 4, !tbaa !14
  %258 = add nsw i32 %256, %257
  %259 = add nsw i32 %258, 4
  %260 = ashr i32 %259, 3
  %261 = add nsw i32 %255, %260
  %262 = call zeroext i8 @av_clip_uint8_c(i32 noundef %261) #7
  %263 = load ptr, ptr %4, align 8, !tbaa !10
  %264 = getelementptr inbounds i8, ptr %263, i64 1
  store i8 %262, ptr %264, align 1, !tbaa !18
  %265 = load ptr, ptr %4, align 8, !tbaa !10
  %266 = getelementptr inbounds i8, ptr %265, i64 2
  %267 = load i8, ptr %266, align 1, !tbaa !18
  %268 = zext i8 %267 to i32
  %269 = load i32, ptr %9, align 4, !tbaa !14
  %270 = load i32, ptr %10, align 4, !tbaa !14
  %271 = sub nsw i32 %269, %270
  %272 = add nsw i32 %271, 4
  %273 = ashr i32 %272, 3
  %274 = add nsw i32 %268, %273
  %275 = call zeroext i8 @av_clip_uint8_c(i32 noundef %274) #7
  %276 = load ptr, ptr %4, align 8, !tbaa !10
  %277 = getelementptr inbounds i8, ptr %276, i64 2
  store i8 %275, ptr %277, align 1, !tbaa !18
  %278 = load ptr, ptr %4, align 8, !tbaa !10
  %279 = getelementptr inbounds i8, ptr %278, i64 3
  %280 = load i8, ptr %279, align 1, !tbaa !18
  %281 = zext i8 %280 to i32
  %282 = load i32, ptr %8, align 4, !tbaa !14
  %283 = load i32, ptr %11, align 4, !tbaa !14
  %284 = sub nsw i32 %282, %283
  %285 = add nsw i32 %284, 4
  %286 = ashr i32 %285, 3
  %287 = add nsw i32 %281, %286
  %288 = call zeroext i8 @av_clip_uint8_c(i32 noundef %287) #7
  %289 = load ptr, ptr %4, align 8, !tbaa !10
  %290 = getelementptr inbounds i8, ptr %289, i64 3
  store i8 %288, ptr %290, align 1, !tbaa !18
  %291 = load i64, ptr %6, align 8, !tbaa !12
  %292 = load ptr, ptr %4, align 8, !tbaa !10
  %293 = getelementptr inbounds i8, ptr %292, i64 %291
  store ptr %293, ptr %4, align 8, !tbaa !10
  br label %294

294:                                              ; preds = %164
  %295 = load i32, ptr %7, align 4, !tbaa !14
  %296 = add nsw i32 %295, 1
  store i32 %296, ptr %7, align 4, !tbaa !14
  br label %161, !llvm.loop !154

297:                                              ; preds = %161
  call void @llvm.lifetime.end.p0(i64 32, ptr %12) #6
  call void @llvm.lifetime.end.p0(i64 4, ptr %11) #6
  call void @llvm.lifetime.end.p0(i64 4, ptr %10) #6
  call void @llvm.lifetime.end.p0(i64 4, ptr %9) #6
  call void @llvm.lifetime.end.p0(i64 4, ptr %8) #6
  call void @llvm.lifetime.end.p0(i64 4, ptr %7) #6
  ret void
}