; Function Attrs: nofree norecurse nosync nounwind memory(argmem: readwrite) uwtable
define internal void @vp8_idct_add_c(ptr noundef captures(none) %0, ptr noundef captures(none) %1, i64 noundef %2) #1 {
  %4 = alloca [16 x i16], align 16
  call void @llvm.lifetime.start.p0(i64 32, ptr nonnull %4) #5
  br label %5

5:                                                ; preds = %3, %5
  %indvars.iv = phi i64 [ 0, %3 ], [ %indvars.iv.next, %5 ]
  %6 = getelementptr inbounds nuw i16, ptr %1, i64 %indvars.iv
  %7 = load i16, ptr %6, align 2, !tbaa !126
  %8 = zext i16 %7 to i32
  %9 = getelementptr inbounds nuw i8, ptr %6, i64 16
  %10 = load i16, ptr %9, align 2, !tbaa !126
  %11 = zext i16 %10 to i32
  %12 = add nuw nsw i32 %11, %8
  %13 = sub nsw i32 %8, %11
  %14 = getelementptr inbounds nuw i8, ptr %6, i64 8
  %15 = load i16, ptr %14, align 2, !tbaa !126
  %16 = sext i16 %15 to i32
  %17 = mul nsw i32 %16, 35468
  %18 = ashr i32 %17, 16
  %19 = getelementptr inbounds nuw i8, ptr %6, i64 24
  %20 = load i16, ptr %19, align 2, !tbaa !126
  %21 = sext i16 %20 to i32
  %22 = mul nsw i32 %21, 20091
  %23 = ashr i32 %22, 16
  %24 = add nsw i32 %23, %21
  %25 = sub nsw i32 %18, %24
  %26 = mul nsw i32 %16, 20091
  %27 = ashr i32 %26, 16
  %28 = add nsw i32 %27, %16
  %29 = mul nsw i32 %21, 35468
  %30 = ashr i32 %29, 16
  %31 = add nsw i32 %28, %30
  store i16 0, ptr %6, align 2, !tbaa !126
  store i16 0, ptr %14, align 2, !tbaa !126
  store i16 0, ptr %9, align 2, !tbaa !126
  store i16 0, ptr %19, align 2, !tbaa !126
  %32 = add nsw i32 %31, %12
  %33 = trunc i32 %32 to i16
  %34 = shl nuw nsw i64 %indvars.iv, 2
  %35 = getelementptr inbounds nuw [16 x i16], ptr %4, i64 0, i64 %34
  store i16 %33, ptr %35, align 8, !tbaa !126
  %36 = add nsw i32 %25, %13
  %37 = trunc i32 %36 to i16
  %38 = or disjoint i64 %34, 1
  %39 = getelementptr inbounds nuw [16 x i16], ptr %4, i64 0, i64 %38
  store i16 %37, ptr %39, align 2, !tbaa !126
  %40 = sub nsw i32 %13, %25
  %41 = trunc i32 %40 to i16
  %42 = or disjoint i64 %34, 2
  %43 = getelementptr inbounds nuw [16 x i16], ptr %4, i64 0, i64 %42
  store i16 %41, ptr %43, align 4, !tbaa !126
  %44 = sub nsw i32 %12, %31
  %45 = trunc i32 %44 to i16
  %46 = or disjoint i64 %34, 3
  %47 = getelementptr inbounds nuw [16 x i16], ptr %4, i64 0, i64 %46
  store i16 %45, ptr %47, align 2, !tbaa !126
  %indvars.iv.next = add nuw nsw i64 %indvars.iv, 1
  %exitcond.not = icmp eq i64 %indvars.iv.next, 4
  br i1 %exitcond.not, label %.preheader.lver.check, label %5, !llvm.loop !147

.preheader.lver.check:                            ; preds = %5
  %ident.check.not = icmp eq i64 %2, 1
  br i1 %ident.check.not, label %.preheader.ph, label %.preheader.lver.orig

.preheader.lver.orig:                             ; preds = %.preheader.lver.check, %.preheader.lver.orig
  %indvars.iv92.lver.orig = phi i64 [ %indvars.iv.next93.lver.orig, %.preheader.lver.orig ], [ 0, %.preheader.lver.check ]
  %.07189.lver.orig = phi ptr [ %110, %.preheader.lver.orig ], [ %0, %.preheader.lver.check ]
  %48 = getelementptr inbounds nuw [16 x i16], ptr %4, i64 0, i64 %indvars.iv92.lver.orig
  %49 = load i16, ptr %48, align 2, !tbaa !126
  %50 = sext i16 %49 to i32
  %51 = or disjoint i64 %indvars.iv92.lver.orig, 8
  %52 = getelementptr inbounds nuw [16 x i16], ptr %4, i64 0, i64 %51
  %53 = load i16, ptr %52, align 2, !tbaa !126
  %54 = sext i16 %53 to i32
  %55 = add nsw i32 %54, %50
  %56 = sub nsw i32 %50, %54
  %57 = or disjoint i64 %indvars.iv92.lver.orig, 4
  %58 = getelementptr inbounds nuw [16 x i16], ptr %4, i64 0, i64 %57
  %59 = load i16, ptr %58, align 2, !tbaa !126
  %60 = sext i16 %59 to i32
  %61 = mul nsw i32 %60, 35468
  %62 = ashr i32 %61, 16
  %63 = or disjoint i64 %indvars.iv92.lver.orig, 12
  %64 = getelementptr inbounds nuw [16 x i16], ptr %4, i64 0, i64 %63
  %65 = load i16, ptr %64, align 2, !tbaa !126
  %66 = sext i16 %65 to i32
  %67 = mul nsw i32 %66, 20091
  %68 = ashr i32 %67, 16
  %69 = add nsw i32 %68, %66
  %70 = sub nsw i32 %62, %69
  %71 = mul nsw i32 %60, 20091
  %72 = ashr i32 %71, 16
  %73 = add nsw i32 %72, %60
  %74 = mul nsw i32 %66, 35468
  %75 = ashr i32 %74, 16
  %76 = add nsw i32 %73, %75
  %77 = load i8, ptr %.07189.lver.orig, align 1, !tbaa !10
  %78 = zext i8 %77 to i32
  %79 = add nsw i32 %55, 4
  %80 = add nsw i32 %79, %76
  %81 = ashr i32 %80, 3
  %82 = add nsw i32 %81, %78
  %.not.i.lver.orig = icmp ult i32 %82, 256
  %isnotneg.i.lver.orig = icmp sgt i32 %82, -1
  %83 = sext i1 %isnotneg.i.lver.orig to i8
  %84 = trunc nuw i32 %82 to i8
  %.0.i.lver.orig = select i1 %.not.i.lver.orig, i8 %84, i8 %83
  store i8 %.0.i.lver.orig, ptr %.07189.lver.orig, align 1, !tbaa !10
  %85 = getelementptr inbounds nuw i8, ptr %.07189.lver.orig, i64 1
  %86 = load i8, ptr %85, align 1, !tbaa !10
  %87 = zext i8 %86 to i32
  %88 = add nsw i32 %56, 4
  %89 = add nsw i32 %88, %70
  %90 = ashr i32 %89, 3
  %91 = add nsw i32 %90, %87
  %.not.i72.lver.orig = icmp ult i32 %91, 256
  %isnotneg.i73.lver.orig = icmp sgt i32 %91, -1
  %92 = sext i1 %isnotneg.i73.lver.orig to i8
  %93 = trunc nuw i32 %91 to i8
  %.0.i74.lver.orig = select i1 %.not.i72.lver.orig, i8 %93, i8 %92
  store i8 %.0.i74.lver.orig, ptr %85, align 1, !tbaa !10
  %94 = getelementptr inbounds nuw i8, ptr %.07189.lver.orig, i64 2
  %95 = load i8, ptr %94, align 1, !tbaa !10
  %96 = zext i8 %95 to i32
  %97 = sub nsw i32 %88, %70
  %98 = ashr i32 %97, 3
  %99 = add nsw i32 %98, %96
  %.not.i75.lver.orig = icmp ult i32 %99, 256
  %isnotneg.i76.lver.orig = icmp sgt i32 %99, -1
  %100 = sext i1 %isnotneg.i76.lver.orig to i8
  %101 = trunc nuw i32 %99 to i8
  %.0.i77.lver.orig = select i1 %.not.i75.lver.orig, i8 %101, i8 %100
  store i8 %.0.i77.lver.orig, ptr %94, align 1, !tbaa !10
  %102 = getelementptr inbounds nuw i8, ptr %.07189.lver.orig, i64 3
  %103 = load i8, ptr %102, align 1, !tbaa !10
  %104 = zext i8 %103 to i32
  %105 = sub nsw i32 %79, %76
  %106 = ashr i32 %105, 3
  %107 = add nsw i32 %106, %104
  %.not.i78.lver.orig = icmp ult i32 %107, 256
  %isnotneg.i79.lver.orig = icmp sgt i32 %107, -1
  %108 = sext i1 %isnotneg.i79.lver.orig to i8
  %109 = trunc nuw i32 %107 to i8
  %.0.i80.lver.orig = select i1 %.not.i78.lver.orig, i8 %109, i8 %108
  store i8 %.0.i80.lver.orig, ptr %102, align 1, !tbaa !10
  %110 = getelementptr inbounds i8, ptr %.07189.lver.orig, i64 %2
  %indvars.iv.next93.lver.orig = add nuw nsw i64 %indvars.iv92.lver.orig, 1
  %exitcond95.not.lver.orig = icmp eq i64 %indvars.iv.next93.lver.orig, 4
  br i1 %exitcond95.not.lver.orig, label %.loopexit, label %.preheader.lver.orig, !llvm.loop !148

.preheader.ph:                                    ; preds = %.preheader.lver.check
  %scevgep = getelementptr i8, ptr %0, i64 2
  %load_initial = load i8, ptr %scevgep, align 1
  br label %.preheader

.preheader:                                       ; preds = %.preheader.ph, %.preheader
  %store_forwarded = phi i8 [ %load_initial, %.preheader.ph ], [ %.0.i80, %.preheader ]
  %indvars.iv92 = phi i64 [ 0, %.preheader.ph ], [ %indvars.iv.next93, %.preheader ]
  %.07189 = phi ptr [ %0, %.preheader.ph ], [ %172, %.preheader ]
  %111 = getelementptr inbounds nuw [16 x i16], ptr %4, i64 0, i64 %indvars.iv92
  %112 = load i16, ptr %111, align 2, !tbaa !126
  %113 = sext i16 %112 to i32
  %114 = or disjoint i64 %indvars.iv92, 8
  %115 = getelementptr inbounds nuw [16 x i16], ptr %4, i64 0, i64 %114
  %116 = load i16, ptr %115, align 2, !tbaa !126
  %117 = sext i16 %116 to i32
  %118 = add nsw i32 %117, %113
  %119 = sub nsw i32 %113, %117
  %120 = or disjoint i64 %indvars.iv92, 4
  %121 = getelementptr inbounds nuw [16 x i16], ptr %4, i64 0, i64 %120
  %122 = load i16, ptr %121, align 2, !tbaa !126
  %123 = sext i16 %122 to i32
  %124 = mul nsw i32 %123, 35468
  %125 = ashr i32 %124, 16
  %126 = or disjoint i64 %indvars.iv92, 12
  %127 = getelementptr inbounds nuw [16 x i16], ptr %4, i64 0, i64 %126
  %128 = load i16, ptr %127, align 2, !tbaa !126
  %129 = sext i16 %128 to i32
  %130 = mul nsw i32 %129, 20091
  %131 = ashr i32 %130, 16
  %132 = add nsw i32 %131, %129
  %133 = sub nsw i32 %125, %132
  %134 = mul nsw i32 %123, 20091
  %135 = ashr i32 %134, 16
  %136 = add nsw i32 %135, %123
  %137 = mul nsw i32 %129, 35468
  %138 = ashr i32 %137, 16
  %139 = add nsw i32 %136, %138
  %140 = load i8, ptr %.07189, align 1, !tbaa !10
  %141 = zext i8 %140 to i32
  %142 = add nsw i32 %118, 4
  %143 = add nsw i32 %142, %139
  %144 = ashr i32 %143, 3
  %145 = add nsw i32 %144, %141
  %.not.i = icmp ult i32 %145, 256
  %isnotneg.i = icmp sgt i32 %145, -1
  %146 = sext i1 %isnotneg.i to i8
  %147 = trunc nuw i32 %145 to i8
  %.0.i = select i1 %.not.i, i8 %147, i8 %146
  store i8 %.0.i, ptr %.07189, align 1, !tbaa !10
  %148 = getelementptr inbounds nuw i8, ptr %.07189, i64 1
  %149 = load i8, ptr %148, align 1, !tbaa !10
  %150 = zext i8 %149 to i32
  %151 = add nsw i32 %119, 4
  %152 = add nsw i32 %151, %133
  %153 = ashr i32 %152, 3
  %154 = add nsw i32 %153, %150
  %.not.i72 = icmp ult i32 %154, 256
  %isnotneg.i73 = icmp sgt i32 %154, -1
  %155 = sext i1 %isnotneg.i73 to i8
  %156 = trunc nuw i32 %154 to i8
  %.0.i74 = select i1 %.not.i72, i8 %156, i8 %155
  store i8 %.0.i74, ptr %148, align 1, !tbaa !10
  %157 = getelementptr inbounds nuw i8, ptr %.07189, i64 2
  %158 = zext i8 %store_forwarded to i32
  %159 = sub nsw i32 %151, %133
  %160 = ashr i32 %159, 3
  %161 = add nsw i32 %160, %158
  %.not.i75 = icmp ult i32 %161, 256
  %isnotneg.i76 = icmp sgt i32 %161, -1
  %162 = sext i1 %isnotneg.i76 to i8
  %163 = trunc nuw i32 %161 to i8
  %.0.i77 = select i1 %.not.i75, i8 %163, i8 %162
  store i8 %.0.i77, ptr %157, align 1, !tbaa !10
  %164 = getelementptr inbounds nuw i8, ptr %.07189, i64 3
  %165 = load i8, ptr %164, align 1, !tbaa !10
  %166 = zext i8 %165 to i32
  %167 = sub nsw i32 %142, %139
  %168 = ashr i32 %167, 3
  %169 = add nsw i32 %168, %166
  %.not.i78 = icmp ult i32 %169, 256
  %isnotneg.i79 = icmp sgt i32 %169, -1
  %170 = sext i1 %isnotneg.i79 to i8
  %171 = trunc nuw i32 %169 to i8
  %.0.i80 = select i1 %.not.i78, i8 %171, i8 %170
  store i8 %.0.i80, ptr %164, align 1, !tbaa !10
  %172 = getelementptr inbounds nuw i8, ptr %.07189, i64 %2
  %indvars.iv.next93 = add nuw nsw i64 %indvars.iv92, 1
  %exitcond95.not = icmp eq i64 %indvars.iv.next93, 4
  br i1 %exitcond95.not, label %.loopexit, label %.preheader, !llvm.loop !148

.loopexit:                                        ; preds = %.preheader.lver.orig, %.preheader
  call void @llvm.lifetime.end.p0(i64 32, ptr nonnull %4) #5
  ret void
}